; Function Attrs: nounwind uwtable
define hidden void @zflf_str_starts_with_2(ptr noundef writeonly captures(none) %0, ptr noundef %1, ptr noundef %2) local_unnamed_addr #0 {
  %4 = alloca %struct._zval_struct, align 8
  %5 = alloca %struct._zval_struct, align 8
  %6 = alloca ptr, align 8
  %7 = alloca ptr, align 8
  call void @llvm.lifetime.start.p0(i64 16, ptr nonnull %4) #28
  call void @llvm.lifetime.start.p0(i64 16, ptr nonnull %5) #28
  call void @llvm.lifetime.start.p0(i64 8, ptr nonnull %6) #28
  call void @llvm.lifetime.start.p0(i64 8, ptr nonnull %7) #28
  %8 = getelementptr inbounds nuw i8, ptr %1, i64 8
  %9 = load i8, ptr %8, align 8, !tbaa !10
  %10 = icmp eq i8 %9, 6
  %11 = load ptr, ptr %1, align 8, !tbaa !10
  br i1 %10, label %.sink.split, label %12

12:                                               ; preds = %3
  %13 = load i32, ptr %8, align 8, !tbaa !10
  store ptr %11, ptr %4, align 8, !tbaa !10
  %14 = getelementptr inbounds nuw i8, ptr %4, i64 8
  store i32 %13, ptr %14, align 8, !tbaa !10
  %15 = and i32 %13, 65280
  %.not = icmp eq i32 %15, 0
  %16 = trunc i32 %13 to i8
  br i1 %.not, label %20, label %17

17:                                               ; preds = %12
  %18 = load i32, ptr %11, align 4, !tbaa !21
  %19 = add i32 %18, 1
  store i32 %19, ptr %11, align 4, !tbaa !21
  %.pre = load i8, ptr %14, align 8, !tbaa !10
  br label %20

20:                                               ; preds = %17, %12
  %21 = phi i8 [ %.pre, %17 ], [ %16, %12 ]
  %22 = icmp eq i8 %21, 6
  br i1 %22, label %zend_parse_arg_str_ex.exit34.thread, label %zend_parse_arg_str_ex.exit34, !prof !12

zend_parse_arg_str_ex.exit34.thread:              ; preds = %20
  %23 = load ptr, ptr %4, align 8, !tbaa !10
  br label %.sink.split

zend_parse_arg_str_ex.exit34:                     ; preds = %20
  %24 = call zeroext i1 @zend_flf_parse_arg_str_slow(ptr noundef nonnull %4, ptr noundef nonnull %6, i32 noundef 1) #28
  br i1 %24, label %25, label %.thread

.thread:                                          ; preds = %zend_parse_arg_str_ex.exit34
  call void @zend_wrong_parameter_type_error(i32 noundef 1, i32 noundef 4, ptr noundef nonnull %4) #28
  br label %58

.sink.split:                                      ; preds = %3, %zend_parse_arg_str_ex.exit34.thread
  %.sink = phi ptr [ %23, %zend_parse_arg_str_ex.exit34.thread ], [ %11, %3 ]
  %.0.ph = phi ptr [ %4, %zend_parse_arg_str_ex.exit34.thread ], [ %1, %3 ]
  store ptr %.sink, ptr %6, align 8, !tbaa !13
  br label %25

25:                                               ; preds = %.sink.split, %zend_parse_arg_str_ex.exit34
  %.0 = phi ptr [ %4, %zend_parse_arg_str_ex.exit34 ], [ %.0.ph, %.sink.split ]
  %26 = getelementptr inbounds nuw i8, ptr %2, i64 8
  %27 = load i8, ptr %26, align 8, !tbaa !10
  %28 = icmp eq i8 %27, 6
  %29 = load ptr, ptr %2, align 8, !tbaa !10
  br i1 %28, label %30, label %31

30:                                               ; preds = %25
  store ptr %29, ptr %7, align 8, !tbaa !13
  br label %45

31:                                               ; preds = %25
  %32 = load i32, ptr %26, align 8, !tbaa !10
  store ptr %29, ptr %5, align 8, !tbaa !10
  %33 = getelementptr inbounds nuw i8, ptr %5, i64 8
  store i32 %32, ptr %33, align 8, !tbaa !10
  %34 = and i32 %32, 65280
  %.not32 = icmp eq i32 %34, 0
  %35 = trunc i32 %32 to i8
  br i1 %.not32, label %39, label %36

36:                                               ; preds = %31
  %37 = load i32, ptr %29, align 4, !tbaa !21
  %38 = add i32 %37, 1
  store i32 %38, ptr %29, align 4, !tbaa !21
  %.pre43 = load i8, ptr %33, align 8, !tbaa !10
  br label %39

39:                                               ; preds = %36, %31
  %40 = phi i8 [ %.pre43, %36 ], [ %35, %31 ]
  %41 = icmp eq i8 %40, 6
  br i1 %41, label %zend_parse_arg_str_ex.exit.thread, label %zend_parse_arg_str_ex.exit, !prof !12

zend_parse_arg_str_ex.exit.thread:                ; preds = %39
  %42 = load ptr, ptr %5, align 8, !tbaa !10
  store ptr %42, ptr %7, align 8, !tbaa !13
  br label %45

zend_parse_arg_str_ex.exit:                       ; preds = %39
  %43 = call zeroext i1 @zend_flf_parse_arg_str_slow(ptr noundef nonnull %5, ptr noundef nonnull %7, i32 noundef 2) #28
  br i1 %43, label %zend_parse_arg_str_ex.exit._crit_edge, label %44

zend_parse_arg_str_ex.exit._crit_edge:            ; preds = %zend_parse_arg_str_ex.exit
  %.pre44 = load ptr, ptr %7, align 8, !tbaa !13
  br label %45

44:                                               ; preds = %zend_parse_arg_str_ex.exit
  call void @zend_wrong_parameter_type_error(i32 noundef 2, i32 noundef 4, ptr noundef nonnull %5) #28
  br label %56

45:                                               ; preds = %zend_parse_arg_str_ex.exit._crit_edge, %zend_parse_arg_str_ex.exit.thread, %30
  %46 = phi ptr [ %29, %30 ], [ %.pre44, %zend_parse_arg_str_ex.exit._crit_edge ], [ %42, %zend_parse_arg_str_ex.exit.thread ]
  %.131 = phi ptr [ %2, %30 ], [ %5, %zend_parse_arg_str_ex.exit._crit_edge ], [ %5, %zend_parse_arg_str_ex.exit.thread ]
  %47 = load ptr, ptr %6, align 8, !tbaa !13
  %48 = getelementptr inbounds nuw i8, ptr %46, i64 16
  %49 = load i64, ptr %48, align 8, !tbaa !16
  %50 = getelementptr inbounds nuw i8, ptr %47, i64 16
  %51 = load i64, ptr %50, align 8, !tbaa !16
  %.not.i = icmp ult i64 %51, %49
  br i1 %.not.i, label %zend_string_starts_with_cstr.exit.thread, label %zend_string_starts_with_cstr.exit

zend_string_starts_with_cstr.exit:                ; preds = %45
  %52 = getelementptr inbounds nuw i8, ptr %46, i64 24
  %53 = getelementptr inbounds nuw i8, ptr %47, i64 24
  %bcmp.i = call i32 @bcmp(ptr nonnull %53, ptr nonnull %52, i64 %49)
  %bcmp.i.fr = freeze i32 %bcmp.i
  %.not4.i = icmp eq i32 %bcmp.i.fr, 0
  %spec.select = select i1 %.not4.i, i32 3, i32 2
  br label %zend_string_starts_with_cstr.exit.thread

zend_string_starts_with_cstr.exit.thread:         ; preds = %zend_string_starts_with_cstr.exit, %45
  %54 = phi i32 [ 2, %45 ], [ %spec.select, %zend_string_starts_with_cstr.exit ]
  %55 = getelementptr inbounds nuw i8, ptr %0, i64 8
  store i32 %54, ptr %55, align 8, !tbaa !10
  br label %56

56:                                               ; preds = %zend_string_starts_with_cstr.exit.thread, %44
  %.030 = phi ptr [ %.131, %zend_string_starts_with_cstr.exit.thread ], [ %5, %44 ]
  %57 = icmp eq ptr %.0, %4
  br i1 %57, label %58, label %59, !prof !32

58:                                               ; preds = %.thread, %56
  %.142 = phi ptr [ %4, %.thread ], [ %.0, %56 ]
  %.03041 = phi ptr [ %2, %.thread ], [ %.030, %56 ]
  call void @zval_ptr_dtor(ptr noundef nonnull %.142) #28
  br label %59

59:                                               ; preds = %58, %56
  %.03040 = phi ptr [ %.03041, %58 ], [ %.030, %56 ]
  %60 = icmp eq ptr %.03040, %5
  br i1 %60, label %61, label %62, !prof !23

61:                                               ; preds = %59
  call void @zval_ptr_dtor(ptr noundef %.03040) #28
  br label %62

62:                                               ; preds = %61, %59
  call void @llvm.lifetime.end.p0(i64 8, ptr nonnull %7) #28
  call void @llvm.lifetime.end.p0(i64 8, ptr nonnull %6) #28
  call void @llvm.lifetime.end.p0(i64 16, ptr nonnull %5) #28
  call void @llvm.lifetime.end.p0(i64 16, ptr nonnull %4) #28
  ret void
}